; Function Attrs: mustprogress uwtable
define internal noundef i32 @_ZN11flatbuffers12_GLOBAL__N_118SwiftCodeGenerator12GenerateCodeERKNS_6ParserERKNSt7__cxx1112basic_stringIcSt11char_traitsIcESaIcEEESC_(ptr nocapture nonnull readnone align 8 %this, ptr noundef nonnull align 8 dereferenceable(1784) %parser, ptr noundef nonnull align 8 dereferenceable(32) %path, ptr noundef nonnull align 8 dereferenceable(32) %filename) unnamed_addr #0 align 2 personality ptr @__gxx_personality_v0 {
entry:
  %generator.i = alloca %"class.flatbuffers::swift::SwiftGenerator", align 8
  call void @llvm.lifetime.start.p0(i64 1064, ptr nonnull %generator.i)
  call void @_ZN11flatbuffers5swift14SwiftGeneratorC2ERKNS_6ParserERKNSt7__cxx1112basic_stringIcSt11char_traitsIcESaIcEEESC_(ptr noundef nonnull align 8 dereferenceable(1064) %generator.i, ptr noundef nonnull align 8 dereferenceable(1784) %parser, ptr noundef nonnull align 8 dereferenceable(32) %path, ptr noundef nonnull align 8 dereferenceable(32) %filename)
  %call.i = invoke noundef zeroext i1 @_ZN11flatbuffers5swift14SwiftGenerator8generateEv(ptr noundef nonnull align 8 dereferenceable(1064) %generator.i)
          to label %_ZN11flatbuffersL13GenerateSwiftERKNS_6ParserERKNSt7__cxx1112basic_stringIcSt11char_traitsIcESaIcEEESA_.exit unwind label %lpad.i

lpad.i:                                           ; preds = %entry
  %0 = landingpad { ptr, i32 }
          cleanup
  call void @_ZN11flatbuffers5swift14SwiftGeneratorD2Ev(ptr noundef nonnull align 8 dereferenceable(1064) %generator.i) #18
  resume { ptr, i32 } %0

_ZN11flatbuffersL13GenerateSwiftERKNS_6ParserERKNSt7__cxx1112basic_stringIcSt11char_traitsIcESaIcEEESA_.exit: ; preds = %entry
  call void @_ZN11flatbuffers5swift14SwiftGeneratorD2Ev(ptr noundef nonnull align 8 dereferenceable(1064) %generator.i) #18
  call void @llvm.lifetime.end.p0(i64 1064, ptr nonnull %generator.i)
  %not.call.i = xor i1 %call.i, true
  %. = zext i1 %not.call.i to i32
  ret i32 %.
}